target datalayout = "e-m:e-p270:32:32-p271:32:32-p272:64:64-i64:64-i128:128-f80:128-n8:16:32:64-S128"
target triple = "x86_64-pc-linux-gnu"

%struct.VVCLocalContext = type { i8, i8, i8, i8, i32, i32, [4 x i8], [3276800 x i8], [16384 x i16], [16384 x i16], [16384 x i16], [32768 x i8], [332800 x i8], [368640 x i8], [368640 x i8], [17424 x i32], %struct.anon, %struct.anon.0, ptr, [2 x [1024 x %struct.ReconstructedArea]], [2 x i32], %struct.NeighbourAvailable, i32, ptr, ptr, ptr, ptr }
%struct.anon = type { i32, i8, i32, i32, i32, [3 x i32], i32, i32, i32, i32, i32, i32 }
%struct.anon.0 = type { i32, i32, i32 }
%struct.ReconstructedArea = type { i32, i32, i32, i32 }
%struct.NeighbourAvailable = type { i32, i32, i32, i32, i32 }
%struct.PredWeightTable = type { [2 x i8], [2 x i8], [2 x [2 x [15 x i8]]], [2 x [3 x [15 x i16]]], [2 x [3 x [15 x i16]]] }
%struct.SliceContext = type { i32, %struct.VVCSH, ptr, i32, ptr, ptr }
%struct.VVCSH = type { ptr, i32, ptr, %struct.PredWeightTable, [2 x i8], i8, %struct.DBParams, [2 x i8], [2 x i8], [2 x i8], [2 x i8], i8, i8, [4050 x i32] }
%struct.DBParams = type { [3 x i8], [3 x i8] }
%struct.H266RawSliceHeader = type { %struct.H266RawNALUnitHeader, i8, %struct.H266RawPictureHeader, i16, i16, [16 x i8], i8, i8, i8, i8, i8, [8 x i8], i8, i8, i8, i8, i8, i8, i8, i8, i8, %struct.H266RefPicLists, i8, [2 x i8], i8, i8, i8, %struct.H266RawPredWeightTable, i8, i8, i8, i8, i8, i8, i8, i8, i8, i8, i8, i8, i8, i8, i8, i8, i8, i8, i8, i8, i16, [256 x i8], i8, [4050 x i32], i16, i32, [2 x i8] }
%struct.H266RawNALUnitHeader = type { i8, i8, i8, i8 }
%struct.H266RawPictureHeader = type { i8, i8, i8, i8, i8, i8, i16, i8, [16 x i8], i8, i8, i8, i8, [8 x i8], i8, i8, i8, i8, i8, i8, i8, i8, i8, i8, i8, i8, i8, i8, [3 x i16], i8, [3 x i16], i8, %struct.H266RefPicLists, i8, i8, i8, i8, i8, i8, i8, i8, i8, i8, i8, i8, i8, i8, i8, i8, i8, i8, i8, i8, i8, i8, i8, i8, i8, %struct.H266RawPredWeightTable, i8, i8, i8, i8, i8, i8, i8, i8, i8, i8, i8, i8, i8, [256 x i8] }
%struct.H266RefPicLists = type { [2 x i8], [2 x i8], [2 x %struct.H266RefPicListStruct], [2 x [29 x i16]], [2 x [29 x i8]], [2 x [29 x i16]] }
%struct.H266RefPicListStruct = type { i8, i8, [29 x i8], [29 x i8], [29 x i8], [29 x i8], [29 x i8], [29 x i8] }
%struct.H266RawPredWeightTable = type { i8, i8, i8, [15 x i8], [15 x i8], [15 x i8], [15 x i8], [15 x [2 x i8]], [15 x [2 x i16]], i8, [15 x i8], [15 x i8], [15 x i8], [15 x i8], [15 x [2 x i8]], [15 x [2 x i16]], i8, i8 }

; Function Attrs: nounwind uwtable
define i32 @ff_vvc_alf_luma_prev_filter_idx(ptr noundef %0) #0 {
  %2 = alloca ptr, align 8
  store ptr %0, ptr %2, align 8, !tbaa !4
  %3 = load ptr, ptr %2, align 8, !tbaa !4
  %4 = load ptr, ptr %2, align 8, !tbaa !4
  %5 = getelementptr inbounds nuw %struct.VVCLocalContext, ptr %4, i32 0, i32 23
  %6 = load ptr, ptr %5, align 16, !tbaa !64
  %7 = getelementptr inbounds nuw %struct.SliceContext, ptr %6, i32 0, i32 1
  %8 = getelementptr inbounds nuw %struct.VVCSH, ptr %7, i32 0, i32 0
  %9 = load ptr, ptr %8, align 8, !tbaa !74
  %10 = getelementptr inbounds nuw %struct.H266RawSliceHeader, ptr %9, i32 0, i32 10
  %11 = load i8, ptr %10, align 4, !tbaa !117
  %12 = zext i8 %11 to i32
  %13 = sub nsw i32 %12, 1
  %14 = call i32 @truncated_binary_decode(ptr noundef %3, i32 noundef %13)
  ret i32 %14
}