; Function Attrs: nofree norecurse nosync nounwind memory(readwrite, inaccessiblemem: none) uwtable
define i32 @ff_vvc_alf_luma_prev_filter_idx(ptr noundef readonly captures(none) %0) local_unnamed_addr #3 {
  %2 = getelementptr inbounds nuw i8, ptr %0, i64 4580544
  %3 = load ptr, ptr %2, align 16, !tbaa !60
  %4 = getelementptr inbounds nuw i8, ptr %3, i64 8
  %5 = load ptr, ptr %4, align 8, !tbaa !73
  %6 = getelementptr inbounds nuw i8, ptr %5, i64 1348
  %7 = load i8, ptr %6, align 4, !tbaa !107
  %8 = zext i8 %7 to i32
  %9 = add nsw i32 %8, -1
  %10 = tail call fastcc i32 @truncated_binary_decode(ptr noundef %0, i32 noundef %9)
  ret i32 %10
}